target datalayout = "e-m:e-p270:32:32-p271:32:32-p272:64:64-i64:64-i128:128-f80:128-n8:16:32:64-S128"
target triple = "x86_64-pc-linux-gnu"

%struct.AVCodecContext = type { ptr, i32, i32, ptr, i32, i32, ptr, ptr, ptr, i64, i32, i32, ptr, i32, %struct.AVRational, %struct.AVRational, %struct.AVRational, i32, i32, i32, i32, i32, %struct.AVRational, i32, i32, i32, i32, i32, i32, i32, i32, i32, i32, i32, ptr, ptr, i32, float, float, float, float, float, float, float, float, float, i32, i32, i32, i32, i32, i32, i32, i32, i32, i32, i32, i32, ptr, ptr, ptr, i32, i32, i32, i32, i32, i32, i32, i32, i32, i32, %struct.AVChannelLayout, i32, i32, i32, i32, i32, i32, i32, i32, ptr, i32, i32, i32, float, float, i32, i32, i32, i32, i32, ptr, i64, i64, float, float, i32, i32, ptr, ptr, i32, i32, i32, i32, i32, ptr, ptr, ptr, ptr, i32, i32, [8 x i64], i32, i32, i32, i32, i32, i32, i32, ptr, ptr, i32, i32, i32, i32, i32, i32, i32, i32, i32, i32, ptr, ptr, i32, i32, ptr, ptr, ptr, ptr, i32, i32, i64, i32, i32, i64, ptr, i64, ptr, i32, ptr, i32 }
%struct.AVRational = type { i32, i32 }
%struct.AVChannelLayout = type { i32, i32, %union.anon.0, ptr }
%union.anon.0 = type { i64 }
%struct.AT1Ctx = type { [2 x %struct.AT1SUCtx], [512 x float], [256 x float], [256 x float], [512 x float], [3 x ptr], [3 x ptr], [3 x ptr], ptr }
%struct.AT1SUCtx = type { [3 x i32], i32, [2 x ptr], [512 x float], [512 x float], [46 x float], [8 x i8], [46 x float], [8 x i8], [295 x float] }
%struct.AVFloatDSPContext = type { ptr, ptr, ptr, ptr, ptr, ptr, ptr, ptr, ptr, ptr, ptr, ptr }

@.str.2 = private unnamed_addr constant [36 x i8] c"Unsupported number of channels: %d\0A\00", align 1
@.str.3 = private unnamed_addr constant [25 x i8] c"Unsupported block align.\00", align 1

; Function Attrs: cold nounwind optsize uwtable
define internal i32 @atrac1_decode_init(ptr noundef %0) #0 {
  %2 = alloca i32, align 4
  %3 = alloca ptr, align 8
  %4 = alloca ptr, align 8
  %5 = alloca ptr, align 8
  %6 = alloca i32, align 4
  %7 = alloca float, align 4
  %8 = alloca i32, align 4
  %9 = alloca i32, align 4
  store ptr %0, ptr %3, align 8, !tbaa !4
  call void @llvm.lifetime.start.p0(i64 8, ptr %4) #8
  %10 = load ptr, ptr %3, align 8, !tbaa !4
  %11 = getelementptr inbounds nuw %struct.AVCodecContext, ptr %10, i32 0, i32 6
  %12 = load ptr, ptr %11, align 8, !tbaa !9
  store ptr %12, ptr %4, align 8, !tbaa !29
  call void @llvm.lifetime.start.p0(i64 8, ptr %5) #8
  call void @llvm.lifetime.start.p0(i64 4, ptr %6) #8
  %13 = load ptr, ptr %3, align 8, !tbaa !4
  %14 = getelementptr inbounds nuw %struct.AVCodecContext, ptr %13, i32 0, i32 71
  %15 = getelementptr inbounds nuw %struct.AVChannelLayout, ptr %14, i32 0, i32 1
  %16 = load i32, ptr %15, align 4, !tbaa !31
  store i32 %16, ptr %6, align 4, !tbaa !32
  call void @llvm.lifetime.start.p0(i64 4, ptr %7) #8
  store float 0xBF00000000000000, ptr %7, align 4, !tbaa !33
  call void @llvm.lifetime.start.p0(i64 4, ptr %8) #8
  %17 = load ptr, ptr %3, align 8, !tbaa !4
  %18 = getelementptr inbounds nuw %struct.AVCodecContext, ptr %17, i32 0, i32 70
  store i32 8, ptr %18, align 4, !tbaa !34
  %19 = load i32, ptr %6, align 4, !tbaa !32
  %20 = icmp slt i32 %19, 1
  br i1 %20, label %24, label %21

21:                                               ; preds = %1
  %22 = load i32, ptr %6, align 4, !tbaa !32
  %23 = icmp sgt i32 %22, 2
  br i1 %23, label %24, label %27

24:                                               ; preds = %21, %1
  %25 = load ptr, ptr %3, align 8, !tbaa !4
  %26 = load i32, ptr %6, align 4, !tbaa !32
  call void (ptr, i32, ptr, ...) @av_log(ptr noundef %25, i32 noundef 16, ptr noundef @.str.2, i32 noundef %26)
  store i32 -22, ptr %2, align 4
  store i32 1, ptr %9, align 4
  br label %144

27:                                               ; preds = %21
  %28 = load ptr, ptr %3, align 8, !tbaa !4
  %29 = getelementptr inbounds nuw %struct.AVCodecContext, ptr %28, i32 0, i32 73
  %30 = load i32, ptr %29, align 4, !tbaa !35
  %31 = icmp sle i32 %30, 0
  br i1 %31, label %32, label %34

32:                                               ; preds = %27
  %33 = load ptr, ptr %3, align 8, !tbaa !4
  call void (ptr, i32, ptr, ...) @av_log(ptr noundef %33, i32 noundef 16, ptr noundef @.str.3)
  store i32 -1163346256, ptr %2, align 4
  store i32 1, ptr %9, align 4
  br label %144

34:                                               ; preds = %27
  %35 = load ptr, ptr %4, align 8, !tbaa !29
  %36 = getelementptr inbounds nuw %struct.AT1Ctx, ptr %35, i32 0, i32 6
  %37 = getelementptr inbounds [3 x ptr], ptr %36, i64 0, i64 0
  %38 = load ptr, ptr %4, align 8, !tbaa !29
  %39 = getelementptr inbounds nuw %struct.AT1Ctx, ptr %38, i32 0, i32 7
  %40 = getelementptr inbounds [3 x ptr], ptr %39, i64 0, i64 0
  %41 = call i32 @av_tx_init(ptr noundef %37, ptr noundef %40, i32 noundef 1, i32 noundef 1, i32 noundef 32, ptr noundef %7, i64 noundef 0)
  %42 = icmp slt i32 %41, 0
  %43 = zext i1 %42 to i32
  store i32 %43, ptr %8, align 4, !tbaa !32
  br i1 %42, label %44, label %46

44:                                               ; preds = %34
  %45 = load i32, ptr %8, align 4, !tbaa !32
  store i32 %45, ptr %2, align 4
  store i32 1, ptr %9, align 4
  br label %144

46:                                               ; preds = %34
  %47 = load ptr, ptr %4, align 8, !tbaa !29
  %48 = getelementptr inbounds nuw %struct.AT1Ctx, ptr %47, i32 0, i32 6
  %49 = getelementptr inbounds [3 x ptr], ptr %48, i64 0, i64 1
  %50 = load ptr, ptr %4, align 8, !tbaa !29
  %51 = getelementptr inbounds nuw %struct.AT1Ctx, ptr %50, i32 0, i32 7
  %52 = getelementptr inbounds [3 x ptr], ptr %51, i64 0, i64 1
  %53 = call i32 @av_tx_init(ptr noundef %49, ptr noundef %52, i32 noundef 1, i32 noundef 1, i32 noundef 128, ptr noundef %7, i64 noundef 0)
  %54 = icmp slt i32 %53, 0
  %55 = zext i1 %54 to i32
  store i32 %55, ptr %8, align 4, !tbaa !32
  br i1 %54, label %56, label %58

56:                                               ; preds = %46
  %57 = load i32, ptr %8, align 4, !tbaa !32
  store i32 %57, ptr %2, align 4
  store i32 1, ptr %9, align 4
  br label %144

58:                                               ; preds = %46
  %59 = load ptr, ptr %4, align 8, !tbaa !29
  %60 = getelementptr inbounds nuw %struct.AT1Ctx, ptr %59, i32 0, i32 6
  %61 = getelementptr inbounds [3 x ptr], ptr %60, i64 0, i64 2
  %62 = load ptr, ptr %4, align 8, !tbaa !29
  %63 = getelementptr inbounds nuw %struct.AT1Ctx, ptr %62, i32 0, i32 7
  %64 = getelementptr inbounds [3 x ptr], ptr %63, i64 0, i64 2
  %65 = call i32 @av_tx_init(ptr noundef %61, ptr noundef %64, i32 noundef 1, i32 noundef 1, i32 noundef 256, ptr noundef %7, i64 noundef 0)
  %66 = icmp slt i32 %65, 0
  %67 = zext i1 %66 to i32
  store i32 %67, ptr %8, align 4, !tbaa !32
  br i1 %66, label %68, label %70

68:                                               ; preds = %58
  %69 = load i32, ptr %8, align 4, !tbaa !32
  store i32 %69, ptr %2, align 4
  store i32 1, ptr %9, align 4
  br label %144

70:                                               ; preds = %58
  call void @ff_init_ff_sine_windows(i32 noundef 5)
  call void @ff_atrac_generate_tables()
  %71 = load ptr, ptr %3, align 8, !tbaa !4
  %72 = getelementptr inbounds nuw %struct.AVCodecContext, ptr %71, i32 0, i32 10
  %73 = load i32, ptr %72, align 8, !tbaa !36
  %74 = and i32 %73, 8388608
  %75 = call ptr @avpriv_float_dsp_alloc(i32 noundef %74)
  store ptr %75, ptr %5, align 8, !tbaa !37
  %76 = load ptr, ptr %5, align 8, !tbaa !37
  %77 = icmp ne ptr %76, null
  br i1 %77, label %79, label %78

78:                                               ; preds = %70
  store i32 -12, ptr %2, align 4
  store i32 1, ptr %9, align 4
  br label %144

79:                                               ; preds = %70
  %80 = load ptr, ptr %5, align 8, !tbaa !37
  %81 = getelementptr inbounds nuw %struct.AVFloatDSPContext, ptr %80, i32 0, i32 5
  %82 = load ptr, ptr %81, align 8, !tbaa !39
  %83 = load ptr, ptr %4, align 8, !tbaa !29
  %84 = getelementptr inbounds nuw %struct.AT1Ctx, ptr %83, i32 0, i32 8
  store ptr %82, ptr %84, align 8, !tbaa !41
  %85 = load ptr, ptr %5, align 8, !tbaa !37
  call void @av_free(ptr noundef %85)
  %86 = load ptr, ptr %4, align 8, !tbaa !29
  %87 = getelementptr inbounds nuw %struct.AT1Ctx, ptr %86, i32 0, i32 2
  %88 = getelementptr inbounds [256 x float], ptr %87, i64 0, i64 0
  %89 = load ptr, ptr %4, align 8, !tbaa !29
  %90 = getelementptr inbounds nuw %struct.AT1Ctx, ptr %89, i32 0, i32 5
  %91 = getelementptr inbounds [3 x ptr], ptr %90, i64 0, i64 0
  store ptr %88, ptr %91, align 16, !tbaa !43
  %92 = load ptr, ptr %4, align 8, !tbaa !29
  %93 = getelementptr inbounds nuw %struct.AT1Ctx, ptr %92, i32 0, i32 3
  %94 = getelementptr inbounds [256 x float], ptr %93, i64 0, i64 0
  %95 = load ptr, ptr %4, align 8, !tbaa !29
  %96 = getelementptr inbounds nuw %struct.AT1Ctx, ptr %95, i32 0, i32 5
  %97 = getelementptr inbounds [3 x ptr], ptr %96, i64 0, i64 1
  store ptr %94, ptr %97, align 8, !tbaa !43
  %98 = load ptr, ptr %4, align 8, !tbaa !29
  %99 = getelementptr inbounds nuw %struct.AT1Ctx, ptr %98, i32 0, i32 4
  %100 = getelementptr inbounds [512 x float], ptr %99, i64 0, i64 0
  %101 = load ptr, ptr %4, align 8, !tbaa !29
  %102 = getelementptr inbounds nuw %struct.AT1Ctx, ptr %101, i32 0, i32 5
  %103 = getelementptr inbounds [3 x ptr], ptr %102, i64 0, i64 2
  store ptr %100, ptr %103, align 16, !tbaa !43
  %104 = load ptr, ptr %4, align 8, !tbaa !29
  %105 = getelementptr inbounds nuw %struct.AT1Ctx, ptr %104, i32 0, i32 0
  %106 = getelementptr inbounds [2 x %struct.AT1SUCtx], ptr %105, i64 0, i64 0
  %107 = getelementptr inbounds nuw %struct.AT1SUCtx, ptr %106, i32 0, i32 3
  %108 = getelementptr inbounds [512 x float], ptr %107, i64 0, i64 0
  %109 = load ptr, ptr %4, align 8, !tbaa !29
  %110 = getelementptr inbounds nuw %struct.AT1Ctx, ptr %109, i32 0, i32 0
  %111 = getelementptr inbounds [2 x %struct.AT1SUCtx], ptr %110, i64 0, i64 0
  %112 = getelementptr inbounds nuw %struct.AT1SUCtx, ptr %111, i32 0, i32 2
  %113 = getelementptr inbounds [2 x ptr], ptr %112, i64 0, i64 0
  store ptr %108, ptr %113, align 16, !tbaa !43
  %114 = load ptr, ptr %4, align 8, !tbaa !29
  %115 = getelementptr inbounds nuw %struct.AT1Ctx, ptr %114, i32 0, i32 0
  %116 = getelementptr inbounds [2 x %struct.AT1SUCtx], ptr %115, i64 0, i64 0
  %117 = getelementptr inbounds nuw %struct.AT1SUCtx, ptr %116, i32 0, i32 4
  %118 = getelementptr inbounds [512 x float], ptr %117, i64 0, i64 0
  %119 = load ptr, ptr %4, align 8, !tbaa !29
  %120 = getelementptr inbounds nuw %struct.AT1Ctx, ptr %119, i32 0, i32 0
  %121 = getelementptr inbounds [2 x %struct.AT1SUCtx], ptr %120, i64 0, i64 0
  %122 = getelementptr inbounds nuw %struct.AT1SUCtx, ptr %121, i32 0, i32 2
  %123 = getelementptr inbounds [2 x ptr], ptr %122, i64 0, i64 1
  store ptr %118, ptr %123, align 8, !tbaa !43
  %124 = load ptr, ptr %4, align 8, !tbaa !29
  %125 = getelementptr inbounds nuw %struct.AT1Ctx, ptr %124, i32 0, i32 0
  %126 = getelementptr inbounds [2 x %struct.AT1SUCtx], ptr %125, i64 0, i64 1
  %127 = getelementptr inbounds nuw %struct.AT1SUCtx, ptr %126, i32 0, i32 3
  %128 = getelementptr inbounds [512 x float], ptr %127, i64 0, i64 0
  %129 = load ptr, ptr %4, align 8, !tbaa !29
  %130 = getelementptr inbounds nuw %struct.AT1Ctx, ptr %129, i32 0, i32 0
  %131 = getelementptr inbounds [2 x %struct.AT1SUCtx], ptr %130, i64 0, i64 1
  %132 = getelementptr inbounds nuw %struct.AT1SUCtx, ptr %131, i32 0, i32 2
  %133 = getelementptr inbounds [2 x ptr], ptr %132, i64 0, i64 0
  store ptr %128, ptr %133, align 16, !tbaa !43
  %134 = load ptr, ptr %4, align 8, !tbaa !29
  %135 = getelementptr inbounds nuw %struct.AT1Ctx, ptr %134, i32 0, i32 0
  %136 = getelementptr inbounds [2 x %struct.AT1SUCtx], ptr %135, i64 0, i64 1
  %137 = getelementptr inbounds nuw %struct.AT1SUCtx, ptr %136, i32 0, i32 4
  %138 = getelementptr inbounds [512 x float], ptr %137, i64 0, i64 0
  %139 = load ptr, ptr %4, align 8, !tbaa !29
  %140 = getelementptr inbounds nuw %struct.AT1Ctx, ptr %139, i32 0, i32 0
  %141 = getelementptr inbounds [2 x %struct.AT1SUCtx], ptr %140, i64 0, i64 1
  %142 = getelementptr inbounds nuw %struct.AT1SUCtx, ptr %141, i32 0, i32 2
  %143 = getelementptr inbounds [2 x ptr], ptr %142, i64 0, i64 1
  store ptr %138, ptr %143, align 8, !tbaa !43
  store i32 0, ptr %2, align 4
  store i32 1, ptr %9, align 4
  br label %144

144:                                              ; preds = %79, %78, %68, %56, %44, %32, %24
  call void @llvm.lifetime.end.p0(i64 4, ptr %8) #8
  call void @llvm.lifetime.end.p0(i64 4, ptr %7) #8
  call void @llvm.lifetime.end.p0(i64 4, ptr %6) #8
  call void @llvm.lifetime.end.p0(i64 8, ptr %5) #8
  call void @llvm.lifetime.end.p0(i64 8, ptr %4) #8
  %145 = load i32, ptr %2, align 4
  ret i32 %145
}