; Function Attrs: cold nounwind optsize uwtable
define internal range(i32 -1163346256, 2) i32 @atrac1_decode_init(ptr noundef initializes((348, 352)) %0) #0 {
  %2 = alloca float, align 4
  %3 = getelementptr inbounds nuw i8, ptr %0, i64 32
  %4 = load ptr, ptr %3, align 8, !tbaa !4
  %5 = getelementptr inbounds nuw i8, ptr %0, i64 356
  %6 = load i32, ptr %5, align 4, !tbaa !27
  call void @llvm.lifetime.start.p0(i64 4, ptr nonnull %2) #7
  store float 0xBF00000000000000, ptr %2, align 4, !tbaa !28
  %7 = getelementptr inbounds nuw i8, ptr %0, i64 348
  store i32 8, ptr %7, align 4, !tbaa !29
  %8 = add i32 %6, -3
  %or.cond = icmp ult i32 %8, -2
  br i1 %or.cond, label %9, label %10

9:                                                ; preds = %1
  tail call void (ptr, i32, ptr, ...) @av_log(ptr noundef nonnull %0, i32 noundef 16, ptr noundef nonnull @.str.2, i32 noundef %6) #7
  br label %53

10:                                               ; preds = %1
  %11 = getelementptr inbounds nuw i8, ptr %0, i64 380
  %12 = load i32, ptr %11, align 4, !tbaa !30
  %13 = icmp slt i32 %12, 1
  br i1 %13, label %14, label %15

14:                                               ; preds = %10
  tail call void (ptr, i32, ptr, ...) @av_log(ptr noundef nonnull %0, i32 noundef 16, ptr noundef nonnull @.str.3) #7
  br label %53

15:                                               ; preds = %10
  %16 = getelementptr inbounds nuw i8, ptr %4, i64 17560
  %17 = getelementptr inbounds nuw i8, ptr %4, i64 17584
  %18 = call i32 @av_tx_init(ptr noundef nonnull %16, ptr noundef nonnull %17, i32 noundef 1, i32 noundef 1, i32 noundef 32, ptr noundef nonnull %2, i64 noundef 0) #7
  %19 = icmp slt i32 %18, 0
  br i1 %19, label %53, label %20

20:                                               ; preds = %15
  %21 = getelementptr inbounds nuw i8, ptr %4, i64 17568
  %22 = getelementptr inbounds nuw i8, ptr %4, i64 17592
  %23 = call i32 @av_tx_init(ptr noundef nonnull %21, ptr noundef nonnull %22, i32 noundef 1, i32 noundef 1, i32 noundef 128, ptr noundef nonnull %2, i64 noundef 0) #7
  %24 = icmp slt i32 %23, 0
  br i1 %24, label %53, label %25

25:                                               ; preds = %20
  %26 = getelementptr inbounds nuw i8, ptr %4, i64 17576
  %27 = getelementptr inbounds nuw i8, ptr %4, i64 17600
  %28 = call i32 @av_tx_init(ptr noundef nonnull %26, ptr noundef nonnull %27, i32 noundef 1, i32 noundef 1, i32 noundef 256, ptr noundef nonnull %2, i64 noundef 0) #7
  %29 = icmp slt i32 %28, 0
  br i1 %29, label %53, label %30

30:                                               ; preds = %25
  call void @ff_init_ff_sine_windows(i32 noundef 5) #7
  call void @ff_atrac_generate_tables() #7
  %31 = getelementptr inbounds nuw i8, ptr %0, i64 64
  %32 = load i32, ptr %31, align 8, !tbaa !31
  %33 = and i32 %32, 8388608
  %34 = call ptr @avpriv_float_dsp_alloc(i32 noundef %33) #7
  %.not = icmp eq ptr %34, null
  br i1 %.not, label %53, label %35

35:                                               ; preds = %30
  %36 = getelementptr inbounds nuw i8, ptr %34, i64 40
  %37 = load ptr, ptr %36, align 8, !tbaa !32
  %38 = getelementptr inbounds nuw i8, ptr %4, i64 17608
  store ptr %37, ptr %38, align 8, !tbaa !34
  call void @av_free(ptr noundef nonnull %34) #7
  %39 = getelementptr inbounds nuw i8, ptr %4, i64 13440
  %40 = getelementptr inbounds nuw i8, ptr %4, i64 17536
  store ptr %39, ptr %40, align 16, !tbaa !36
  %41 = getelementptr inbounds nuw i8, ptr %4, i64 14464
  %42 = getelementptr inbounds nuw i8, ptr %4, i64 17544
  store ptr %41, ptr %42, align 8, !tbaa !36
  %43 = getelementptr inbounds nuw i8, ptr %4, i64 15488
  %44 = getelementptr inbounds nuw i8, ptr %4, i64 17552
  store ptr %43, ptr %44, align 16, !tbaa !36
  %45 = getelementptr inbounds nuw i8, ptr %4, i64 32
  %46 = getelementptr inbounds nuw i8, ptr %4, i64 16
  store ptr %45, ptr %46, align 16, !tbaa !36
  %47 = getelementptr inbounds nuw i8, ptr %4, i64 2080
  %48 = getelementptr inbounds nuw i8, ptr %4, i64 24
  store ptr %47, ptr %48, align 8, !tbaa !36
  %49 = getelementptr inbounds nuw i8, ptr %4, i64 5728
  %50 = getelementptr inbounds nuw i8, ptr %4, i64 5712
  store ptr %49, ptr %50, align 16, !tbaa !36
  %51 = getelementptr inbounds nuw i8, ptr %4, i64 7776
  %52 = getelementptr inbounds nuw i8, ptr %4, i64 5720
  store ptr %51, ptr %52, align 8, !tbaa !36
  br label %53

53:                                               ; preds = %25, %20, %15, %30, %35, %14, %9
  %.0 = phi i32 [ -22, %9 ], [ -1163346256, %14 ], [ 0, %35 ], [ -12, %30 ], [ 1, %15 ], [ 1, %20 ], [ 1, %25 ]
  call void @llvm.lifetime.end.p0(i64 4, ptr nonnull %2) #7
  ret i32 %.0
}